(lp0
S'poi'
p1
aS'salary'
p2
aS'total_payments'
p3
aS'loan_advances'
p4
aS'bonus'
p5
aS'total_stock_value'
p6
aS'exercised_stock_options'
p7
aS'long_term_incentive'
p8
aS'restricted_stock'
p9
aS'from_poi_freq'
p10
aS'to_poi_freq'
p11
a.